target datalayout = "e-m:e-p270:32:32-p271:32:32-p272:64:64-i64:64-i128:128-f80:128-n8:16:32:64-S128"
target triple = "x86_64-unknown-linux-gnu"

; Function Attrs: mustprogress nounwind uwtable
define internal noundef signext i8 @_ZL9U_SUCCESS10UErrorCode(i32 noundef %code) #0 {
entry:
  %code.addr = alloca i32, align 4
  store i32 %code, ptr %code.addr, align 4
  %0 = load i32, ptr %code.addr, align 4
  %cmp = icmp sle i32 %0, 0
  %conv = zext i1 %cmp to i8
  ret i8 %conv
}

; Function Attrs: mustprogress uwtable
define ptr @ucal_getLocaleByType_75(ptr noundef %cal, i32 noundef %type, ptr noundef %status) #1 {
entry:
  %retval = alloca ptr, align 8
  %cal.addr = alloca ptr, align 8
  %type.addr = alloca i32, align 4
  %status.addr = alloca ptr, align 8
  store ptr %cal, ptr %cal.addr, align 8
  store i32 %type, ptr %type.addr, align 4
  store ptr %status, ptr %status.addr, align 8
  %0 = load ptr, ptr %cal.addr, align 8
  %cmp = icmp eq ptr %0, null
  br i1 %cmp, label %if.then, label %if.end2

if.then:                                          ; preds = %entry
  %1 = load ptr, ptr %status.addr, align 8
  %2 = load i32, ptr %1, align 4
  %call = call noundef signext i8 @_ZL9U_SUCCESS10UErrorCode(i32 noundef %2)
  %tobool = icmp ne i8 %call, 0
  br i1 %tobool, label %if.then1, label %if.end

if.then1:                                         ; preds = %if.then
  %3 = load ptr, ptr %status.addr, align 8
  store i32 1, ptr %3, align 4
  br label %if.end

if.end:                                           ; preds = %if.then1, %if.then
  store ptr null, ptr %retval, align 8
  br label %return

if.end2:                                          ; preds = %entry
  %4 = load ptr, ptr %cal.addr, align 8
  %5 = load i32, ptr %type.addr, align 4
  %6 = load ptr, ptr %status.addr, align 8
  %call3 = call noundef ptr @_ZNK6icu_758Calendar11getLocaleIDE18ULocDataLocaleTypeR10UErrorCode(ptr noundef nonnull align 8 dereferenceable(618) %4, i32 noundef %5, ptr noundef nonnull align 4 dereferenceable(4) %6)
  store ptr %call3, ptr %retval, align 8
  br label %return

return:                                           ; preds = %if.end2, %if.end
  %7 = load ptr, ptr %retval, align 8
  ret ptr %7
}